; Function Attrs: nounwind uwtable
define internal void @k_dead(ptr noundef captures(none) %0, i8 noundef zeroext %1, i8 noundef signext %2) #0 {
  %4 = zext i8 %1 to i64
  %5 = getelementptr inbounds nuw [27 x i8], ptr @__const.k_dead.ret_diacr, i64 0, i64 %4
  %6 = load i8, ptr %5, align 1
  %7 = zext i8 %6 to i32
  %.not.i = icmp eq i8 %2, 0
  br i1 %.not.i, label %8, label %k_deadunicode.exit

8:                                                ; preds = %3
  %9 = getelementptr inbounds nuw i8, ptr %0, i64 48
  %10 = load i32, ptr %9, align 8
  %.not5.i = icmp eq i32 %10, 0
  br i1 %.not5.i, label %handle_diacr.exit.i, label %11

11:                                               ; preds = %8
  store i32 0, ptr %9, align 8
  %12 = load i32, ptr %0, align 8
  %13 = icmp sgt i32 %12, -1
  br i1 %13, label %14, label %18

14:                                               ; preds = %11
  %15 = getelementptr inbounds nuw i8, ptr %0, i64 40
  %16 = load ptr, ptr %15, align 8
  %17 = tail call i32 (i32, i64, ...) @ioctl(i32 noundef %12, i64 noundef 19274, ptr noundef %16) #12
  br label %18

18:                                               ; preds = %14, %11
  %19 = getelementptr inbounds nuw i8, ptr %0, i64 40
  %20 = load ptr, ptr %19, align 8
  %21 = load i32, ptr %20, align 4
  %.not.i.i = icmp eq i32 %21, 0
  br i1 %.not.i.i, label %._crit_edge.i.i, label %.lr.ph.i.i

.lr.ph.i.i:                                       ; preds = %18
  %22 = getelementptr inbounds nuw i8, ptr %20, i64 4
  %wide.trip.count.i.i = zext i32 %21 to i64
  br label %23

23:                                               ; preds = %36, %.lr.ph.i.i
  %indvars.iv.i.i = phi i64 [ 0, %.lr.ph.i.i ], [ %indvars.iv.next.i.i, %36 ]
  %24 = getelementptr inbounds nuw [256 x %struct.kbdiacr], ptr %22, i64 0, i64 %indvars.iv.i.i
  %25 = load i8, ptr %24, align 1
  %26 = zext i8 %25 to i32
  %27 = icmp eq i32 %10, %26
  br i1 %27, label %28, label %36

28:                                               ; preds = %23
  %29 = getelementptr inbounds nuw i8, ptr %24, i64 1
  %30 = load i8, ptr %29, align 1
  %31 = icmp eq i8 %6, %30
  br i1 %31, label %32, label %36

32:                                               ; preds = %28
  %33 = getelementptr inbounds nuw i8, ptr %24, i64 2
  %34 = load i8, ptr %33, align 1
  %35 = zext i8 %34 to i32
  br label %handle_diacr.exit.i

36:                                               ; preds = %28, %23
  %indvars.iv.next.i.i = add nuw nsw i64 %indvars.iv.i.i, 1
  %exitcond.not.i.i = icmp eq i64 %indvars.iv.next.i.i, %wide.trip.count.i.i
  br i1 %exitcond.not.i.i, label %._crit_edge.i.i, label %23, !llvm.loop !10

._crit_edge.i.i:                                  ; preds = %36, %18
  %37 = icmp eq i8 %6, 32
  %38 = icmp eq i32 %10, %7
  %or.cond.i.i = or i1 %37, %38
  br i1 %or.cond.i.i, label %handle_diacr.exit.i, label %39

39:                                               ; preds = %._crit_edge.i.i
  tail call fastcc void @put_utf8(ptr noundef nonnull %0, i32 noundef %10)
  br label %handle_diacr.exit.i

handle_diacr.exit.i:                              ; preds = %39, %._crit_edge.i.i, %32, %8
  %40 = phi i32 [ %7, %8 ], [ %35, %32 ], [ %7, %39 ], [ %10, %._crit_edge.i.i ]
  store i32 %40, ptr %9, align 8
  br label %k_deadunicode.exit

k_deadunicode.exit:                               ; preds = %3, %handle_diacr.exit.i
  ret void
}